target/thumbv7em-none-eabihf/release/cortex-rust:     file format elf32-littlearm


Disassembly of section .vector_table:
        

08000000 <__RESET_VECTOR-0x4>:
 8000000:	20020000 	andcs	r0, r2, r0

08000004 <__RESET_VECTOR>:
 8000004:	08000401 	stmdaeq	r0, {r0, sl}

08000008 <__EXCEPTIONS>:
 8000008:	08000559 	stmdaeq	r0, {r0, r3, r4, r6, r8, sl}
 800000c:	08000757 	stmdaeq	r0, {r0, r1, r2, r4, r6, r8, r9, sl}
 8000010:	08000559 	stmdaeq	r0, {r0, r3, r4, r6, r8, sl}
 8000014:	08000559 	stmdaeq	r0, {r0, r3, r4, r6, r8, sl}
 8000018:	08000559 	stmdaeq	r0, {r0, r3, r4, r6, r8, sl}
	...
 800002c:	08000559 	stmdaeq	r0, {r0, r3, r4, r6, r8, sl}
 8000030:	08000559 	stmdaeq	r0, {r0, r3, r4, r6, r8, sl}
 8000034:	00000000 	andeq	r0, r0, r0
 8000038:	08000559 	stmdaeq	r0, {r0, r3, r4, r6, r8, sl}
 800003c:	08000559 	stmdaeq	r0, {r0, r3, r4, r6, r8, sl}

08000040 <__INTERRUPTS>:
 8000040:	08000559 	stmdaeq	r0, {r0, r3, r4, r6, r8, sl}
 8000044:	08000559 	stmdaeq	r0, {r0, r3, r4, r6, r8, sl}
 8000048:	08000559 	stmdaeq	r0, {r0, r3, r4, r6, r8, sl}
 800004c:	08000559 	stmdaeq	r0, {r0, r3, r4, r6, r8, sl}
 8000050:	08000559 	stmdaeq	r0, {r0, r3, r4, r6, r8, sl}
 8000054:	08000559 	stmdaeq	r0, {r0, r3, r4, r6, r8, sl}
 8000058:	08000559 	stmdaeq	r0, {r0, r3, r4, r6, r8, sl}
 800005c:	08000559 	stmdaeq	r0, {r0, r3, r4, r6, r8, sl}
 8000060:	08000559 	stmdaeq	r0, {r0, r3, r4, r6, r8, sl}
 8000064:	08000559 	stmdaeq	r0, {r0, r3, r4, r6, r8, sl}
 8000068:	08000559 	stmdaeq	r0, {r0, r3, r4, r6, r8, sl}
 800006c:	08000559 	stmdaeq	r0, {r0, r3, r4, r6, r8, sl}
 8000070:	08000559 	stmdaeq	r0, {r0, r3, r4, r6, r8, sl}
 8000074:	08000559 	stmdaeq	r0, {r0, r3, r4, r6, r8, sl}
 8000078:	08000559 	stmdaeq	r0, {r0, r3, r4, r6, r8, sl}
 800007c:	08000559 	stmdaeq	r0, {r0, r3, r4, r6, r8, sl}
 8000080:	08000559 	stmdaeq	r0, {r0, r3, r4, r6, r8, sl}
 8000084:	08000559 	stmdaeq	r0, {r0, r3, r4, r6, r8, sl}
 8000088:	08000559 	stmdaeq	r0, {r0, r3, r4, r6, r8, sl}
 800008c:	08000559 	stmdaeq	r0, {r0, r3, r4, r6, r8, sl}
 8000090:	08000559 	stmdaeq	r0, {r0, r3, r4, r6, r8, sl}
 8000094:	08000559 	stmdaeq	r0, {r0, r3, r4, r6, r8, sl}
 8000098:	08000559 	stmdaeq	r0, {r0, r3, r4, r6, r8, sl}
 800009c:	08000559 	stmdaeq	r0, {r0, r3, r4, r6, r8, sl}
 80000a0:	08000559 	stmdaeq	r0, {r0, r3, r4, r6, r8, sl}
 80000a4:	08000559 	stmdaeq	r0, {r0, r3, r4, r6, r8, sl}
 80000a8:	08000559 	stmdaeq	r0, {r0, r3, r4, r6, r8, sl}
 80000ac:	08000559 	stmdaeq	r0, {r0, r3, r4, r6, r8, sl}
 80000b0:	08000559 	stmdaeq	r0, {r0, r3, r4, r6, r8, sl}
 80000b4:	08000559 	stmdaeq	r0, {r0, r3, r4, r6, r8, sl}
 80000b8:	08000559 	stmdaeq	r0, {r0, r3, r4, r6, r8, sl}
 80000bc:	08000559 	stmdaeq	r0, {r0, r3, r4, r6, r8, sl}
 80000c0:	08000559 	stmdaeq	r0, {r0, r3, r4, r6, r8, sl}
 80000c4:	08000559 	stmdaeq	r0, {r0, r3, r4, r6, r8, sl}
 80000c8:	08000559 	stmdaeq	r0, {r0, r3, r4, r6, r8, sl}
 80000cc:	08000559 	stmdaeq	r0, {r0, r3, r4, r6, r8, sl}
 80000d0:	08000559 	stmdaeq	r0, {r0, r3, r4, r6, r8, sl}
 80000d4:	08000559 	stmdaeq	r0, {r0, r3, r4, r6, r8, sl}
 80000d8:	08000559 	stmdaeq	r0, {r0, r3, r4, r6, r8, sl}
 80000dc:	08000559 	stmdaeq	r0, {r0, r3, r4, r6, r8, sl}
 80000e0:	08000559 	stmdaeq	r0, {r0, r3, r4, r6, r8, sl}
 80000e4:	08000559 	stmdaeq	r0, {r0, r3, r4, r6, r8, sl}
 80000e8:	08000559 	stmdaeq	r0, {r0, r3, r4, r6, r8, sl}
 80000ec:	08000559 	stmdaeq	r0, {r0, r3, r4, r6, r8, sl}
 80000f0:	08000559 	stmdaeq	r0, {r0, r3, r4, r6, r8, sl}
 80000f4:	08000559 	stmdaeq	r0, {r0, r3, r4, r6, r8, sl}
 80000f8:	08000559 	stmdaeq	r0, {r0, r3, r4, r6, r8, sl}
 80000fc:	08000559 	stmdaeq	r0, {r0, r3, r4, r6, r8, sl}
 8000100:	08000559 	stmdaeq	r0, {r0, r3, r4, r6, r8, sl}
 8000104:	08000559 	stmdaeq	r0, {r0, r3, r4, r6, r8, sl}
 8000108:	08000559 	stmdaeq	r0, {r0, r3, r4, r6, r8, sl}
 800010c:	08000559 	stmdaeq	r0, {r0, r3, r4, r6, r8, sl}
 8000110:	08000559 	stmdaeq	r0, {r0, r3, r4, r6, r8, sl}
 8000114:	08000559 	stmdaeq	r0, {r0, r3, r4, r6, r8, sl}
 8000118:	08000559 	stmdaeq	r0, {r0, r3, r4, r6, r8, sl}
 800011c:	08000559 	stmdaeq	r0, {r0, r3, r4, r6, r8, sl}
 8000120:	08000559 	stmdaeq	r0, {r0, r3, r4, r6, r8, sl}
 8000124:	08000559 	stmdaeq	r0, {r0, r3, r4, r6, r8, sl}
 8000128:	08000559 	stmdaeq	r0, {r0, r3, r4, r6, r8, sl}
 800012c:	08000559 	stmdaeq	r0, {r0, r3, r4, r6, r8, sl}
 8000130:	08000559 	stmdaeq	r0, {r0, r3, r4, r6, r8, sl}
 8000134:	08000559 	stmdaeq	r0, {r0, r3, r4, r6, r8, sl}
 8000138:	08000559 	stmdaeq	r0, {r0, r3, r4, r6, r8, sl}
 800013c:	08000559 	stmdaeq	r0, {r0, r3, r4, r6, r8, sl}
 8000140:	08000559 	stmdaeq	r0, {r0, r3, r4, r6, r8, sl}
 8000144:	08000559 	stmdaeq	r0, {r0, r3, r4, r6, r8, sl}
 8000148:	08000559 	stmdaeq	r0, {r0, r3, r4, r6, r8, sl}
 800014c:	08000559 	stmdaeq	r0, {r0, r3, r4, r6, r8, sl}
 8000150:	08000559 	stmdaeq	r0, {r0, r3, r4, r6, r8, sl}
 8000154:	08000559 	stmdaeq	r0, {r0, r3, r4, r6, r8, sl}
 8000158:	08000559 	stmdaeq	r0, {r0, r3, r4, r6, r8, sl}
 800015c:	08000559 	stmdaeq	r0, {r0, r3, r4, r6, r8, sl}
 8000160:	08000559 	stmdaeq	r0, {r0, r3, r4, r6, r8, sl}
 8000164:	08000559 	stmdaeq	r0, {r0, r3, r4, r6, r8, sl}
 8000168:	08000559 	stmdaeq	r0, {r0, r3, r4, r6, r8, sl}
 800016c:	08000559 	stmdaeq	r0, {r0, r3, r4, r6, r8, sl}
 8000170:	08000559 	stmdaeq	r0, {r0, r3, r4, r6, r8, sl}
 8000174:	08000559 	stmdaeq	r0, {r0, r3, r4, r6, r8, sl}
 8000178:	08000559 	stmdaeq	r0, {r0, r3, r4, r6, r8, sl}
 800017c:	08000559 	stmdaeq	r0, {r0, r3, r4, r6, r8, sl}
 8000180:	08000559 	stmdaeq	r0, {r0, r3, r4, r6, r8, sl}
 8000184:	08000559 	stmdaeq	r0, {r0, r3, r4, r6, r8, sl}
 8000188:	08000559 	stmdaeq	r0, {r0, r3, r4, r6, r8, sl}
 800018c:	08000559 	stmdaeq	r0, {r0, r3, r4, r6, r8, sl}
 8000190:	08000559 	stmdaeq	r0, {r0, r3, r4, r6, r8, sl}
 8000194:	08000559 	stmdaeq	r0, {r0, r3, r4, r6, r8, sl}
 8000198:	08000559 	stmdaeq	r0, {r0, r3, r4, r6, r8, sl}
 800019c:	08000559 	stmdaeq	r0, {r0, r3, r4, r6, r8, sl}
 80001a0:	08000559 	stmdaeq	r0, {r0, r3, r4, r6, r8, sl}
 80001a4:	08000559 	stmdaeq	r0, {r0, r3, r4, r6, r8, sl}
 80001a8:	08000559 	stmdaeq	r0, {r0, r3, r4, r6, r8, sl}
 80001ac:	08000559 	stmdaeq	r0, {r0, r3, r4, r6, r8, sl}
 80001b0:	08000559 	stmdaeq	r0, {r0, r3, r4, r6, r8, sl}
 80001b4:	08000559 	stmdaeq	r0, {r0, r3, r4, r6, r8, sl}
 80001b8:	08000559 	stmdaeq	r0, {r0, r3, r4, r6, r8, sl}
 80001bc:	08000559 	stmdaeq	r0, {r0, r3, r4, r6, r8, sl}
 80001c0:	08000559 	stmdaeq	r0, {r0, r3, r4, r6, r8, sl}
 80001c4:	08000559 	stmdaeq	r0, {r0, r3, r4, r6, r8, sl}
 80001c8:	08000559 	stmdaeq	r0, {r0, r3, r4, r6, r8, sl}
 80001cc:	08000559 	stmdaeq	r0, {r0, r3, r4, r6, r8, sl}
 80001d0:	08000559 	stmdaeq	r0, {r0, r3, r4, r6, r8, sl}
 80001d4:	08000559 	stmdaeq	r0, {r0, r3, r4, r6, r8, sl}
 80001d8:	08000559 	stmdaeq	r0, {r0, r3, r4, r6, r8, sl}
 80001dc:	08000559 	stmdaeq	r0, {r0, r3, r4, r6, r8, sl}
 80001e0:	08000559 	stmdaeq	r0, {r0, r3, r4, r6, r8, sl}
 80001e4:	08000559 	stmdaeq	r0, {r0, r3, r4, r6, r8, sl}
 80001e8:	08000559 	stmdaeq	r0, {r0, r3, r4, r6, r8, sl}
 80001ec:	08000559 	stmdaeq	r0, {r0, r3, r4, r6, r8, sl}
 80001f0:	08000559 	stmdaeq	r0, {r0, r3, r4, r6, r8, sl}
 80001f4:	08000559 	stmdaeq	r0, {r0, r3, r4, r6, r8, sl}
 80001f8:	08000559 	stmdaeq	r0, {r0, r3, r4, r6, r8, sl}
 80001fc:	08000559 	stmdaeq	r0, {r0, r3, r4, r6, r8, sl}
 8000200:	08000559 	stmdaeq	r0, {r0, r3, r4, r6, r8, sl}
 8000204:	08000559 	stmdaeq	r0, {r0, r3, r4, r6, r8, sl}
 8000208:	08000559 	stmdaeq	r0, {r0, r3, r4, r6, r8, sl}
 800020c:	08000559 	stmdaeq	r0, {r0, r3, r4, r6, r8, sl}
 8000210:	08000559 	stmdaeq	r0, {r0, r3, r4, r6, r8, sl}
 8000214:	08000559 	stmdaeq	r0, {r0, r3, r4, r6, r8, sl}
 8000218:	08000559 	stmdaeq	r0, {r0, r3, r4, r6, r8, sl}
 800021c:	08000559 	stmdaeq	r0, {r0, r3, r4, r6, r8, sl}
 8000220:	08000559 	stmdaeq	r0, {r0, r3, r4, r6, r8, sl}
 8000224:	08000559 	stmdaeq	r0, {r0, r3, r4, r6, r8, sl}
 8000228:	08000559 	stmdaeq	r0, {r0, r3, r4, r6, r8, sl}
 800022c:	08000559 	stmdaeq	r0, {r0, r3, r4, r6, r8, sl}
 8000230:	08000559 	stmdaeq	r0, {r0, r3, r4, r6, r8, sl}
 8000234:	08000559 	stmdaeq	r0, {r0, r3, r4, r6, r8, sl}
 8000238:	08000559 	stmdaeq	r0, {r0, r3, r4, r6, r8, sl}
 800023c:	08000559 	stmdaeq	r0, {r0, r3, r4, r6, r8, sl}
 8000240:	08000559 	stmdaeq	r0, {r0, r3, r4, r6, r8, sl}
 8000244:	08000559 	stmdaeq	r0, {r0, r3, r4, r6, r8, sl}
 8000248:	08000559 	stmdaeq	r0, {r0, r3, r4, r6, r8, sl}
 800024c:	08000559 	stmdaeq	r0, {r0, r3, r4, r6, r8, sl}
 8000250:	08000559 	stmdaeq	r0, {r0, r3, r4, r6, r8, sl}
 8000254:	08000559 	stmdaeq	r0, {r0, r3, r4, r6, r8, sl}
 8000258:	08000559 	stmdaeq	r0, {r0, r3, r4, r6, r8, sl}
 800025c:	08000559 	stmdaeq	r0, {r0, r3, r4, r6, r8, sl}
 8000260:	08000559 	stmdaeq	r0, {r0, r3, r4, r6, r8, sl}
 8000264:	08000559 	stmdaeq	r0, {r0, r3, r4, r6, r8, sl}
 8000268:	08000559 	stmdaeq	r0, {r0, r3, r4, r6, r8, sl}
 800026c:	08000559 	stmdaeq	r0, {r0, r3, r4, r6, r8, sl}
 8000270:	08000559 	stmdaeq	r0, {r0, r3, r4, r6, r8, sl}
 8000274:	08000559 	stmdaeq	r0, {r0, r3, r4, r6, r8, sl}
 8000278:	08000559 	stmdaeq	r0, {r0, r3, r4, r6, r8, sl}
 800027c:	08000559 	stmdaeq	r0, {r0, r3, r4, r6, r8, sl}
 8000280:	08000559 	stmdaeq	r0, {r0, r3, r4, r6, r8, sl}
 8000284:	08000559 	stmdaeq	r0, {r0, r3, r4, r6, r8, sl}
 8000288:	08000559 	stmdaeq	r0, {r0, r3, r4, r6, r8, sl}
 800028c:	08000559 	stmdaeq	r0, {r0, r3, r4, r6, r8, sl}
 8000290:	08000559 	stmdaeq	r0, {r0, r3, r4, r6, r8, sl}
 8000294:	08000559 	stmdaeq	r0, {r0, r3, r4, r6, r8, sl}
 8000298:	08000559 	stmdaeq	r0, {r0, r3, r4, r6, r8, sl}
 800029c:	08000559 	stmdaeq	r0, {r0, r3, r4, r6, r8, sl}
 80002a0:	08000559 	stmdaeq	r0, {r0, r3, r4, r6, r8, sl}
 80002a4:	08000559 	stmdaeq	r0, {r0, r3, r4, r6, r8, sl}
 80002a8:	08000559 	stmdaeq	r0, {r0, r3, r4, r6, r8, sl}
 80002ac:	08000559 	stmdaeq	r0, {r0, r3, r4, r6, r8, sl}
 80002b0:	08000559 	stmdaeq	r0, {r0, r3, r4, r6, r8, sl}
 80002b4:	08000559 	stmdaeq	r0, {r0, r3, r4, r6, r8, sl}
 80002b8:	08000559 	stmdaeq	r0, {r0, r3, r4, r6, r8, sl}
 80002bc:	08000559 	stmdaeq	r0, {r0, r3, r4, r6, r8, sl}
 80002c0:	08000559 	stmdaeq	r0, {r0, r3, r4, r6, r8, sl}
 80002c4:	08000559 	stmdaeq	r0, {r0, r3, r4, r6, r8, sl}
 80002c8:	08000559 	stmdaeq	r0, {r0, r3, r4, r6, r8, sl}
 80002cc:	08000559 	stmdaeq	r0, {r0, r3, r4, r6, r8, sl}
 80002d0:	08000559 	stmdaeq	r0, {r0, r3, r4, r6, r8, sl}
 80002d4:	08000559 	stmdaeq	r0, {r0, r3, r4, r6, r8, sl}
 80002d8:	08000559 	stmdaeq	r0, {r0, r3, r4, r6, r8, sl}
 80002dc:	08000559 	stmdaeq	r0, {r0, r3, r4, r6, r8, sl}
 80002e0:	08000559 	stmdaeq	r0, {r0, r3, r4, r6, r8, sl}
 80002e4:	08000559 	stmdaeq	r0, {r0, r3, r4, r6, r8, sl}
 80002e8:	08000559 	stmdaeq	r0, {r0, r3, r4, r6, r8, sl}
 80002ec:	08000559 	stmdaeq	r0, {r0, r3, r4, r6, r8, sl}
 80002f0:	08000559 	stmdaeq	r0, {r0, r3, r4, r6, r8, sl}
 80002f4:	08000559 	stmdaeq	r0, {r0, r3, r4, r6, r8, sl}
 80002f8:	08000559 	stmdaeq	r0, {r0, r3, r4, r6, r8, sl}
 80002fc:	08000559 	stmdaeq	r0, {r0, r3, r4, r6, r8, sl}
 8000300:	08000559 	stmdaeq	r0, {r0, r3, r4, r6, r8, sl}
 8000304:	08000559 	stmdaeq	r0, {r0, r3, r4, r6, r8, sl}
 8000308:	08000559 	stmdaeq	r0, {r0, r3, r4, r6, r8, sl}
 800030c:	08000559 	stmdaeq	r0, {r0, r3, r4, r6, r8, sl}
 8000310:	08000559 	stmdaeq	r0, {r0, r3, r4, r6, r8, sl}
 8000314:	08000559 	stmdaeq	r0, {r0, r3, r4, r6, r8, sl}
 8000318:	08000559 	stmdaeq	r0, {r0, r3, r4, r6, r8, sl}
 800031c:	08000559 	stmdaeq	r0, {r0, r3, r4, r6, r8, sl}
 8000320:	08000559 	stmdaeq	r0, {r0, r3, r4, r6, r8, sl}
 8000324:	08000559 	stmdaeq	r0, {r0, r3, r4, r6, r8, sl}
 8000328:	08000559 	stmdaeq	r0, {r0, r3, r4, r6, r8, sl}
 800032c:	08000559 	stmdaeq	r0, {r0, r3, r4, r6, r8, sl}
 8000330:	08000559 	stmdaeq	r0, {r0, r3, r4, r6, r8, sl}
 8000334:	08000559 	stmdaeq	r0, {r0, r3, r4, r6, r8, sl}
 8000338:	08000559 	stmdaeq	r0, {r0, r3, r4, r6, r8, sl}
 800033c:	08000559 	stmdaeq	r0, {r0, r3, r4, r6, r8, sl}
 8000340:	08000559 	stmdaeq	r0, {r0, r3, r4, r6, r8, sl}
 8000344:	08000559 	stmdaeq	r0, {r0, r3, r4, r6, r8, sl}
 8000348:	08000559 	stmdaeq	r0, {r0, r3, r4, r6, r8, sl}
 800034c:	08000559 	stmdaeq	r0, {r0, r3, r4, r6, r8, sl}
 8000350:	08000559 	stmdaeq	r0, {r0, r3, r4, r6, r8, sl}
 8000354:	08000559 	stmdaeq	r0, {r0, r3, r4, r6, r8, sl}
 8000358:	08000559 	stmdaeq	r0, {r0, r3, r4, r6, r8, sl}
 800035c:	08000559 	stmdaeq	r0, {r0, r3, r4, r6, r8, sl}
 8000360:	08000559 	stmdaeq	r0, {r0, r3, r4, r6, r8, sl}
 8000364:	08000559 	stmdaeq	r0, {r0, r3, r4, r6, r8, sl}
 8000368:	08000559 	stmdaeq	r0, {r0, r3, r4, r6, r8, sl}
 800036c:	08000559 	stmdaeq	r0, {r0, r3, r4, r6, r8, sl}
 8000370:	08000559 	stmdaeq	r0, {r0, r3, r4, r6, r8, sl}
 8000374:	08000559 	stmdaeq	r0, {r0, r3, r4, r6, r8, sl}
 8000378:	08000559 	stmdaeq	r0, {r0, r3, r4, r6, r8, sl}
 800037c:	08000559 	stmdaeq	r0, {r0, r3, r4, r6, r8, sl}
 8000380:	08000559 	stmdaeq	r0, {r0, r3, r4, r6, r8, sl}
 8000384:	08000559 	stmdaeq	r0, {r0, r3, r4, r6, r8, sl}
 8000388:	08000559 	stmdaeq	r0, {r0, r3, r4, r6, r8, sl}
 800038c:	08000559 	stmdaeq	r0, {r0, r3, r4, r6, r8, sl}
 8000390:	08000559 	stmdaeq	r0, {r0, r3, r4, r6, r8, sl}
 8000394:	08000559 	stmdaeq	r0, {r0, r3, r4, r6, r8, sl}
 8000398:	08000559 	stmdaeq	r0, {r0, r3, r4, r6, r8, sl}
 800039c:	08000559 	stmdaeq	r0, {r0, r3, r4, r6, r8, sl}
 80003a0:	08000559 	stmdaeq	r0, {r0, r3, r4, r6, r8, sl}
 80003a4:	08000559 	stmdaeq	r0, {r0, r3, r4, r6, r8, sl}
 80003a8:	08000559 	stmdaeq	r0, {r0, r3, r4, r6, r8, sl}
 80003ac:	08000559 	stmdaeq	r0, {r0, r3, r4, r6, r8, sl}
 80003b0:	08000559 	stmdaeq	r0, {r0, r3, r4, r6, r8, sl}
 80003b4:	08000559 	stmdaeq	r0, {r0, r3, r4, r6, r8, sl}
 80003b8:	08000559 	stmdaeq	r0, {r0, r3, r4, r6, r8, sl}
 80003bc:	08000559 	stmdaeq	r0, {r0, r3, r4, r6, r8, sl}
 80003c0:	08000559 	stmdaeq	r0, {r0, r3, r4, r6, r8, sl}
 80003c4:	08000559 	stmdaeq	r0, {r0, r3, r4, r6, r8, sl}
 80003c8:	08000559 	stmdaeq	r0, {r0, r3, r4, r6, r8, sl}
 80003cc:	08000559 	stmdaeq	r0, {r0, r3, r4, r6, r8, sl}
 80003d0:	08000559 	stmdaeq	r0, {r0, r3, r4, r6, r8, sl}
 80003d4:	08000559 	stmdaeq	r0, {r0, r3, r4, r6, r8, sl}
 80003d8:	08000559 	stmdaeq	r0, {r0, r3, r4, r6, r8, sl}
 80003dc:	08000559 	stmdaeq	r0, {r0, r3, r4, r6, r8, sl}
 80003e0:	08000559 	stmdaeq	r0, {r0, r3, r4, r6, r8, sl}
 80003e4:	08000559 	stmdaeq	r0, {r0, r3, r4, r6, r8, sl}
 80003e8:	08000559 	stmdaeq	r0, {r0, r3, r4, r6, r8, sl}
 80003ec:	08000559 	stmdaeq	r0, {r0, r3, r4, r6, r8, sl}
 80003f0:	08000559 	stmdaeq	r0, {r0, r3, r4, r6, r8, sl}
 80003f4:	08000559 	stmdaeq	r0, {r0, r3, r4, r6, r8, sl}
 80003f8:	08000559 	stmdaeq	r0, {r0, r3, r4, r6, r8, sl}
 80003fc:	08000559 	stmdaeq	r0, {r0, r3, r4, r6, r8, sl}

Disassembly of section .text:

08000400 <Reset>:
 8000400:	b580      	push	{r7, lr}
 8000402:	466f      	mov	r7, sp
 8000404:	f000 f8a9 	bl	800055a <DefaultPreInit>
 8000408:	f240 0008 	movw	r0, #8
 800040c:	f240 0100 	movw	r1, #0
 8000410:	f2c2 0000 	movt	r0, #8192	; 0x2000
 8000414:	f2c2 0100 	movt	r1, #8192	; 0x2000
 8000418:	4281      	cmp	r1, r0
 800041a:	d210      	bcs.n	800043e <Reset+0x3e>
 800041c:	2200      	movs	r2, #0
 800041e:	f841 2b04 	str.w	r2, [r1], #4
 8000422:	4281      	cmp	r1, r0
 8000424:	d20b      	bcs.n	800043e <Reset+0x3e>
 8000426:	f841 2b04 	str.w	r2, [r1], #4
 800042a:	4281      	cmp	r1, r0
 800042c:	bf3c      	itt	cc
 800042e:	f841 2b04 	strcc.w	r2, [r1], #4
 8000432:	4281      	cmpcc	r1, r0
 8000434:	d203      	bcs.n	800043e <Reset+0x3e>
 8000436:	f841 2b04 	str.w	r2, [r1], #4
 800043a:	4281      	cmp	r1, r0
 800043c:	d3ef      	bcc.n	800041e <Reset+0x1e>
 800043e:	f000 f869 	bl	8000514 <_ZN2r09init_data17h1ede42601783e127E>
 8000442:	f64e 5088 	movw	r0, #60808	; 0xed88
 8000446:	f2ce 0000 	movt	r0, #57344	; 0xe000
 800044a:	6801      	ldr	r1, [r0, #0]
 800044c:	f441 0170 	orr.w	r1, r1, #15728640	; 0xf00000
 8000450:	6001      	str	r1, [r0, #0]
 8000452:	f000 f87c 	bl	800054e <ResetTrampoline>
 8000456:	defe      	udf	#254	; 0xfe

08000458 <main>:
 8000458:	b580      	push	{r7, lr}
 800045a:	466f      	mov	r7, sp
 800045c:	f000 f801 	bl	8000462 <_ZN11cortex_rust18__cortex_m_rt_main17h6795070da3c15f8cE>
 8000460:	defe      	udf	#254	; 0xfe

08000462 <_ZN11cortex_rust18__cortex_m_rt_main17h6795070da3c15f8cE>:
 8000462:	b580      	push	{r7, lr}
 8000464:	466f      	mov	r7, sp
 8000466:	b084      	sub	sp, #16
 8000468:	f000 f87f 	bl	800056a <__primask_r>
 800046c:	4680      	mov	r8, r0
 800046e:	f000 f878 	bl	8000562 <__cpsid>
 8000472:	f240 0400 	movw	r4, #0
 8000476:	f2c2 0400 	movt	r4, #8192	; 0x2000
 800047a:	7820      	ldrb	r0, [r4, #0]
 800047c:	2801      	cmp	r0, #1
 800047e:	d102      	bne.n	8000486 <_ZN11cortex_rust18__cortex_m_rt_main17h6795070da3c15f8cE+0x24>
 8000480:	f8d4 a004 	ldr.w	sl, [r4, #4]
 8000484:	e013      	b.n	80004ae <_ZN11cortex_rust18__cortex_m_rt_main17h6795070da3c15f8cE+0x4c>
 8000486:	2003      	movs	r0, #3
 8000488:	4669      	mov	r1, sp
 800048a:	9002      	str	r0, [sp, #8]
 800048c:	2004      	movs	r0, #4
 800048e:	9001      	str	r0, [sp, #4]
 8000490:	f240 7073 	movw	r0, #1907	; 0x773
 8000494:	f6c0 0000 	movt	r0, #2048	; 0x800
 8000498:	2601      	movs	r6, #1
 800049a:	9000      	str	r0, [sp, #0]
 800049c:	2001      	movs	r0, #1
 800049e:	f000 f85e 	bl	800055e <__c_m_sh_syscall>
 80004a2:	4682      	mov	sl, r0
 80004a4:	3001      	adds	r0, #1
 80004a6:	d01a      	beq.n	80004de <_ZN11cortex_rust18__cortex_m_rt_main17h6795070da3c15f8cE+0x7c>
 80004a8:	f8c4 a004 	str.w	sl, [r4, #4]
 80004ac:	7026      	strb	r6, [r4, #0]
 80004ae:	f240 746c 	movw	r4, #1900	; 0x76c
 80004b2:	2507      	movs	r5, #7
 80004b4:	f6c0 0400 	movt	r4, #2048	; 0x800
 80004b8:	46e9      	mov	r9, sp
 80004ba:	2005      	movs	r0, #5
 80004bc:	4649      	mov	r1, r9
 80004be:	9502      	str	r5, [sp, #8]
 80004c0:	e9cd a400 	strd	sl, r4, [sp]
 80004c4:	f000 f84b 	bl	800055e <__c_m_sh_syscall>
 80004c8:	4606      	mov	r6, r0
 80004ca:	3801      	subs	r0, #1
 80004cc:	42a8      	cmp	r0, r5
 80004ce:	d203      	bcs.n	80004d8 <_ZN11cortex_rust18__cortex_m_rt_main17h6795070da3c15f8cE+0x76>
 80004d0:	1ba8      	subs	r0, r5, r6
 80004d2:	4635      	mov	r5, r6
 80004d4:	4404      	add	r4, r0
 80004d6:	e7f0      	b.n	80004ba <_ZN11cortex_rust18__cortex_m_rt_main17h6795070da3c15f8cE+0x58>
 80004d8:	2e00      	cmp	r6, #0
 80004da:	bf18      	it	ne
 80004dc:	2601      	movne	r6, #1
 80004de:	ea5f 70c8 	movs.w	r0, r8, lsl #31
 80004e2:	bf08      	it	eq
 80004e4:	f000 f83f 	bleq	8000566 <__cpsie>
 80004e8:	b936      	cbnz	r6, 80004f8 <_ZN11cortex_rust18__cortex_m_rt_main17h6795070da3c15f8cE+0x96>
 80004ea:	2126      	movs	r1, #38	; 0x26
 80004ec:	2018      	movs	r0, #24
 80004ee:	f2c0 0102 	movt	r1, #2
 80004f2:	f000 f834 	bl	800055e <__c_m_sh_syscall>
 80004f6:	e7fe      	b.n	80004f6 <_ZN11cortex_rust18__cortex_m_rt_main17h6795070da3c15f8cE+0x94>
 80004f8:	a803      	add	r0, sp, #12
 80004fa:	f000 f806 	bl	800050a <_ZN4core6result13unwrap_failed17h69db0876e615bc8fE>
 80004fe:	defe      	udf	#254	; 0xfe

08000500 <_ZN4core9panicking9panic_fmt17h47491feec12aefbfE>:
 8000500:	b580      	push	{r7, lr}
 8000502:	466f      	mov	r7, sp
 8000504:	f000 f82a 	bl	800055c <rust_begin_unwind>
 8000508:	defe      	udf	#254	; 0xfe

0800050a <_ZN4core6result13unwrap_failed17h69db0876e615bc8fE>:
 800050a:	b580      	push	{r7, lr}
 800050c:	466f      	mov	r7, sp
 800050e:	f7ff fff7 	bl	8000500 <_ZN4core9panicking9panic_fmt17h47491feec12aefbfE>
 8000512:	defe      	udf	#254	; 0xfe

08000514 <_ZN2r09init_data17h1ede42601783e127E>:
 8000514:	f240 0100 	movw	r1, #0
 8000518:	f240 0000 	movw	r0, #0
 800051c:	f2c2 0100 	movt	r1, #8192	; 0x2000
 8000520:	f2c2 0000 	movt	r0, #8192	; 0x2000
 8000524:	4288      	cmp	r0, r1
 8000526:	bf28      	it	cs
 8000528:	4770      	bxcs	lr
 800052a:	b580      	push	{r7, lr}
 800052c:	466f      	mov	r7, sp
 800052e:	1d02      	adds	r2, r0, #4
 8000530:	4291      	cmp	r1, r2
 8000532:	bf88      	it	hi
 8000534:	460a      	movhi	r2, r1
 8000536:	43c1      	mvns	r1, r0
 8000538:	4411      	add	r1, r2
 800053a:	f021 0103 	bic.w	r1, r1, #3
 800053e:	1d0a      	adds	r2, r1, #4
 8000540:	f240 7178 	movw	r1, #1912	; 0x778
 8000544:	f6c0 0100 	movt	r1, #2048	; 0x800
 8000548:	f000 f812 	bl	8000570 <__aeabi_memcpy4>
 800054c:	bd80      	pop	{r7, pc}

0800054e <ResetTrampoline>:
 800054e:	b580      	push	{r7, lr}
 8000550:	466f      	mov	r7, sp
 8000552:	f7ff ff81 	bl	8000458 <main>
 8000556:	defe      	udf	#254	; 0xfe

08000558 <DefaultHandler_>:
 8000558:	e7fe      	b.n	8000558 <DefaultHandler_>

0800055a <DefaultPreInit>:
 800055a:	4770      	bx	lr

0800055c <rust_begin_unwind>:
 800055c:	e7fe      	b.n	800055c <rust_begin_unwind>

0800055e <__c_m_sh_syscall>:
 800055e:	beab      	bkpt	0x00ab
 8000560:	4770      	bx	lr

08000562 <__cpsid>:
 8000562:	b672      	cpsid	i
 8000564:	4770      	bx	lr

08000566 <__cpsie>:
 8000566:	b662      	cpsie	i
 8000568:	4770      	bx	lr

0800056a <__primask_r>:
 800056a:	f3ef 8010 	mrs	r0, PRIMASK
 800056e:	4770      	bx	lr

08000570 <__aeabi_memcpy4>:
 8000570:	f000 b802 	b.w	8000578 <_ZN17compiler_builtins3arm15__aeabi_memcpy417h77f1c0fd3eb1b2b3E>

08000574 <_ZN17compiler_builtins3arm14__aeabi_memcpy17hcd4f19614974b90fE>:
 8000574:	f000 b84d 	b.w	8000612 <_ZN17compiler_builtins3mem6memcpy17h9fdcb238919cd0fbE>

08000578 <_ZN17compiler_builtins3arm15__aeabi_memcpy417h77f1c0fd3eb1b2b3E>:
 8000578:	b5b0      	push	{r4, r5, r7, lr}
 800057a:	af02      	add	r7, sp, #8
 800057c:	2a04      	cmp	r2, #4
 800057e:	d340      	bcc.n	8000602 <_ZN17compiler_builtins3arm15__aeabi_memcpy417h77f1c0fd3eb1b2b3E+0x8a>
 8000580:	f1a2 0e04 	sub.w	lr, r2, #4
 8000584:	2301      	movs	r3, #1
 8000586:	eb03 039e 	add.w	r3, r3, lr, lsr #2
 800058a:	f013 0403 	ands.w	r4, r3, #3
 800058e:	d00e      	beq.n	80005ae <_ZN17compiler_builtins3arm15__aeabi_memcpy417h77f1c0fd3eb1b2b3E+0x36>
 8000590:	468c      	mov	ip, r1
 8000592:	4603      	mov	r3, r0
 8000594:	f85c 5b04 	ldr.w	r5, [ip], #4
 8000598:	2c01      	cmp	r4, #1
 800059a:	f843 5b04 	str.w	r5, [r3], #4
 800059e:	d10f      	bne.n	80005c0 <_ZN17compiler_builtins3arm15__aeabi_memcpy417h77f1c0fd3eb1b2b3E+0x48>
 80005a0:	4618      	mov	r0, r3
 80005a2:	4661      	mov	r1, ip
 80005a4:	4672      	mov	r2, lr
 80005a6:	f1be 0f0c 	cmp.w	lr, #12
 80005aa:	d21b      	bcs.n	80005e4 <_ZN17compiler_builtins3arm15__aeabi_memcpy417h77f1c0fd3eb1b2b3E+0x6c>
 80005ac:	e002      	b.n	80005b4 <_ZN17compiler_builtins3arm15__aeabi_memcpy417h77f1c0fd3eb1b2b3E+0x3c>
 80005ae:	f1be 0f0c 	cmp.w	lr, #12
 80005b2:	d217      	bcs.n	80005e4 <_ZN17compiler_builtins3arm15__aeabi_memcpy417h77f1c0fd3eb1b2b3E+0x6c>
 80005b4:	4618      	mov	r0, r3
 80005b6:	4661      	mov	r1, ip
 80005b8:	e8bd 40b0 	ldmia.w	sp!, {r4, r5, r7, lr}
 80005bc:	f7ff bfda 	b.w	8000574 <_ZN17compiler_builtins3arm14__aeabi_memcpy17hcd4f19614974b90fE>
 80005c0:	684b      	ldr	r3, [r1, #4]
 80005c2:	2c02      	cmp	r4, #2
 80005c4:	6043      	str	r3, [r0, #4]
 80005c6:	d103      	bne.n	80005d0 <_ZN17compiler_builtins3arm15__aeabi_memcpy417h77f1c0fd3eb1b2b3E+0x58>
 80005c8:	3a08      	subs	r2, #8
 80005ca:	3108      	adds	r1, #8
 80005cc:	3008      	adds	r0, #8
 80005ce:	e004      	b.n	80005da <_ZN17compiler_builtins3arm15__aeabi_memcpy417h77f1c0fd3eb1b2b3E+0x62>
 80005d0:	688b      	ldr	r3, [r1, #8]
 80005d2:	3a0c      	subs	r2, #12
 80005d4:	6083      	str	r3, [r0, #8]
 80005d6:	310c      	adds	r1, #12
 80005d8:	300c      	adds	r0, #12
 80005da:	4603      	mov	r3, r0
 80005dc:	468c      	mov	ip, r1
 80005de:	f1be 0f0c 	cmp.w	lr, #12
 80005e2:	d3e7      	bcc.n	80005b4 <_ZN17compiler_builtins3arm15__aeabi_memcpy417h77f1c0fd3eb1b2b3E+0x3c>
 80005e4:	680b      	ldr	r3, [r1, #0]
 80005e6:	3a10      	subs	r2, #16
 80005e8:	6003      	str	r3, [r0, #0]
 80005ea:	2a03      	cmp	r2, #3
 80005ec:	684b      	ldr	r3, [r1, #4]
 80005ee:	6043      	str	r3, [r0, #4]
 80005f0:	688b      	ldr	r3, [r1, #8]
 80005f2:	6083      	str	r3, [r0, #8]
 80005f4:	68cb      	ldr	r3, [r1, #12]
 80005f6:	f101 0110 	add.w	r1, r1, #16
 80005fa:	60c3      	str	r3, [r0, #12]
 80005fc:	f100 0010 	add.w	r0, r0, #16
 8000600:	d8f0      	bhi.n	80005e4 <_ZN17compiler_builtins3arm15__aeabi_memcpy417h77f1c0fd3eb1b2b3E+0x6c>
 8000602:	468c      	mov	ip, r1
 8000604:	4603      	mov	r3, r0
 8000606:	4618      	mov	r0, r3
 8000608:	4661      	mov	r1, ip
 800060a:	e8bd 40b0 	ldmia.w	sp!, {r4, r5, r7, lr}
 800060e:	f7ff bfb1 	b.w	8000574 <_ZN17compiler_builtins3arm14__aeabi_memcpy17hcd4f19614974b90fE>

08000612 <_ZN17compiler_builtins3mem6memcpy17h9fdcb238919cd0fbE>:
 8000612:	b5f0      	push	{r4, r5, r6, r7, lr}
 8000614:	af03      	add	r7, sp, #12
 8000616:	e92d 0700 	stmdb	sp!, {r8, r9, sl}
 800061a:	2a0f      	cmp	r2, #15
 800061c:	d961      	bls.n	80006e2 <_ZN17compiler_builtins3mem6memcpy17h9fdcb238919cd0fbE+0xd0>
 800061e:	4243      	negs	r3, r0
 8000620:	f013 0403 	ands.w	r4, r3, #3
 8000624:	eb00 0c04 	add.w	ip, r0, r4
 8000628:	d016      	beq.n	8000658 <_ZN17compiler_builtins3mem6memcpy17h9fdcb238919cd0fbE+0x46>
 800062a:	4603      	mov	r3, r0
 800062c:	460e      	mov	r6, r1
 800062e:	7835      	ldrb	r5, [r6, #0]
 8000630:	f803 5b01 	strb.w	r5, [r3], #1
 8000634:	4563      	cmp	r3, ip
 8000636:	d20f      	bcs.n	8000658 <_ZN17compiler_builtins3mem6memcpy17h9fdcb238919cd0fbE+0x46>
 8000638:	7875      	ldrb	r5, [r6, #1]
 800063a:	f803 5b01 	strb.w	r5, [r3], #1
 800063e:	4563      	cmp	r3, ip
 8000640:	bf3e      	ittt	cc
 8000642:	78b5      	ldrbcc	r5, [r6, #2]
 8000644:	f803 5b01 	strbcc.w	r5, [r3], #1
 8000648:	4563      	cmpcc	r3, ip
 800064a:	d205      	bcs.n	8000658 <_ZN17compiler_builtins3mem6memcpy17h9fdcb238919cd0fbE+0x46>
 800064c:	78f5      	ldrb	r5, [r6, #3]
 800064e:	3604      	adds	r6, #4
 8000650:	f803 5b01 	strb.w	r5, [r3], #1
 8000654:	4563      	cmp	r3, ip
 8000656:	d3ea      	bcc.n	800062e <_ZN17compiler_builtins3mem6memcpy17h9fdcb238919cd0fbE+0x1c>
 8000658:	eba2 0e04 	sub.w	lr, r2, r4
 800065c:	eb01 0804 	add.w	r8, r1, r4
 8000660:	f02e 0903 	bic.w	r9, lr, #3
 8000664:	f018 0103 	ands.w	r1, r8, #3
 8000668:	eb0c 0309 	add.w	r3, ip, r9
 800066c:	d03c      	beq.n	80006e8 <_ZN17compiler_builtins3mem6memcpy17h9fdcb238919cd0fbE+0xd6>
 800066e:	f1b9 0f01 	cmp.w	r9, #1
 8000672:	db52      	blt.n	800071a <_ZN17compiler_builtins3mem6memcpy17h9fdcb238919cd0fbE+0x108>
 8000674:	ea4f 0ac1 	mov.w	sl, r1, lsl #3
 8000678:	f028 0103 	bic.w	r1, r8, #3
 800067c:	f101 0508 	add.w	r5, r1, #8
 8000680:	f1ca 0200 	rsb	r2, sl, #0
 8000684:	6809      	ldr	r1, [r1, #0]
 8000686:	f002 0618 	and.w	r6, r2, #24
 800068a:	f855 2c04 	ldr.w	r2, [r5, #-4]
 800068e:	fa21 f10a 	lsr.w	r1, r1, sl
 8000692:	fa02 f406 	lsl.w	r4, r2, r6
 8000696:	4321      	orrs	r1, r4
 8000698:	f84c 1b04 	str.w	r1, [ip], #4
 800069c:	459c      	cmp	ip, r3
 800069e:	d23c      	bcs.n	800071a <_ZN17compiler_builtins3mem6memcpy17h9fdcb238919cd0fbE+0x108>
 80006a0:	6829      	ldr	r1, [r5, #0]
 80006a2:	fa22 f20a 	lsr.w	r2, r2, sl
 80006a6:	fa01 f406 	lsl.w	r4, r1, r6
 80006aa:	4322      	orrs	r2, r4
 80006ac:	f84c 2b04 	str.w	r2, [ip], #4
 80006b0:	459c      	cmp	ip, r3
 80006b2:	bf3f      	itttt	cc
 80006b4:	686a      	ldrcc	r2, [r5, #4]
 80006b6:	fa21 f10a 	lsrcc.w	r1, r1, sl
 80006ba:	fa02 f406 	lslcc.w	r4, r2, r6
 80006be:	4321      	orrcc	r1, r4
 80006c0:	bf3c      	itt	cc
 80006c2:	f84c 1b04 	strcc.w	r1, [ip], #4
 80006c6:	459c      	cmpcc	ip, r3
 80006c8:	d227      	bcs.n	800071a <_ZN17compiler_builtins3mem6memcpy17h9fdcb238919cd0fbE+0x108>
 80006ca:	68a9      	ldr	r1, [r5, #8]
 80006cc:	fa22 f20a 	lsr.w	r2, r2, sl
 80006d0:	3510      	adds	r5, #16
 80006d2:	fa01 f406 	lsl.w	r4, r1, r6
 80006d6:	4322      	orrs	r2, r4
 80006d8:	f84c 2b04 	str.w	r2, [ip], #4
 80006dc:	459c      	cmp	ip, r3
 80006de:	d3d4      	bcc.n	800068a <_ZN17compiler_builtins3mem6memcpy17h9fdcb238919cd0fbE+0x78>
 80006e0:	e01b      	b.n	800071a <_ZN17compiler_builtins3mem6memcpy17h9fdcb238919cd0fbE+0x108>
 80006e2:	4603      	mov	r3, r0
 80006e4:	b9f2      	cbnz	r2, 8000724 <_ZN17compiler_builtins3mem6memcpy17h9fdcb238919cd0fbE+0x112>
 80006e6:	e033      	b.n	8000750 <_ZN17compiler_builtins3mem6memcpy17h9fdcb238919cd0fbE+0x13e>
 80006e8:	f1b9 0f01 	cmp.w	r9, #1
 80006ec:	db15      	blt.n	800071a <_ZN17compiler_builtins3mem6memcpy17h9fdcb238919cd0fbE+0x108>
 80006ee:	4644      	mov	r4, r8
 80006f0:	6821      	ldr	r1, [r4, #0]
 80006f2:	f84c 1b04 	str.w	r1, [ip], #4
 80006f6:	459c      	cmp	ip, r3
 80006f8:	d20f      	bcs.n	800071a <_ZN17compiler_builtins3mem6memcpy17h9fdcb238919cd0fbE+0x108>
 80006fa:	6861      	ldr	r1, [r4, #4]
 80006fc:	f84c 1b04 	str.w	r1, [ip], #4
 8000700:	459c      	cmp	ip, r3
 8000702:	bf3e      	ittt	cc
 8000704:	68a1      	ldrcc	r1, [r4, #8]
 8000706:	f84c 1b04 	strcc.w	r1, [ip], #4
 800070a:	459c      	cmpcc	ip, r3
 800070c:	d205      	bcs.n	800071a <_ZN17compiler_builtins3mem6memcpy17h9fdcb238919cd0fbE+0x108>
 800070e:	68e1      	ldr	r1, [r4, #12]
 8000710:	3410      	adds	r4, #16
 8000712:	f84c 1b04 	str.w	r1, [ip], #4
 8000716:	459c      	cmp	ip, r3
 8000718:	d3ea      	bcc.n	80006f0 <_ZN17compiler_builtins3mem6memcpy17h9fdcb238919cd0fbE+0xde>
 800071a:	eb08 0109 	add.w	r1, r8, r9
 800071e:	f00e 0203 	and.w	r2, lr, #3
 8000722:	b1aa      	cbz	r2, 8000750 <_ZN17compiler_builtins3mem6memcpy17h9fdcb238919cd0fbE+0x13e>
 8000724:	441a      	add	r2, r3
 8000726:	780e      	ldrb	r6, [r1, #0]
 8000728:	f803 6b01 	strb.w	r6, [r3], #1
 800072c:	4293      	cmp	r3, r2
 800072e:	d20f      	bcs.n	8000750 <_ZN17compiler_builtins3mem6memcpy17h9fdcb238919cd0fbE+0x13e>
 8000730:	784e      	ldrb	r6, [r1, #1]
 8000732:	f803 6b01 	strb.w	r6, [r3], #1
 8000736:	4293      	cmp	r3, r2
 8000738:	bf3e      	ittt	cc
 800073a:	788e      	ldrbcc	r6, [r1, #2]
 800073c:	f803 6b01 	strbcc.w	r6, [r3], #1
 8000740:	4293      	cmpcc	r3, r2
 8000742:	d205      	bcs.n	8000750 <_ZN17compiler_builtins3mem6memcpy17h9fdcb238919cd0fbE+0x13e>
 8000744:	78ce      	ldrb	r6, [r1, #3]
 8000746:	3104      	adds	r1, #4
 8000748:	f803 6b01 	strb.w	r6, [r3], #1
 800074c:	4293      	cmp	r3, r2
 800074e:	d3ea      	bcc.n	8000726 <_ZN17compiler_builtins3mem6memcpy17h9fdcb238919cd0fbE+0x114>
 8000750:	e8bd 0700 	ldmia.w	sp!, {r8, r9, sl}
 8000754:	bdf0      	pop	{r4, r5, r6, r7, pc}

08000756 <HardFaultTrampoline>:
 8000756:	4670      	mov	r0, lr
 8000758:	2104      	movs	r1, #4
 800075a:	4208      	tst	r0, r1
 800075c:	d102      	bne.n	8000764 <HardFaultTrampoline+0xe>
 800075e:	f3ef 8008 	mrs	r0, MSP
 8000762:	e002      	b.n	800076a <HardFault_>
 8000764:	f3ef 8009 	mrs	r0, PSP
 8000768:	e7ff      	b.n	800076a <HardFault_>

0800076a <HardFault_>:
 800076a:	e7fe      	b.n	800076a <HardFault_>
